; Function Attrs: nounwind uwtable
define ptr @l_Lean_Lsp_Ipc_writeNotification___at_Lean_Server_Test_Runner_main___spec__33(ptr noundef %0, ptr noundef %1, ptr noundef %2) local_unnamed_addr #1 {
  %4 = tail call ptr @l_Lean_Lsp_Ipc_stdin(ptr noundef %1, ptr noundef %2) #6
  %5 = getelementptr inbounds nuw i8, ptr %4, i64 8
  %6 = load ptr, ptr %5, align 8, !tbaa !4
  %7 = ptrtoint ptr %6 to i64
  %8 = and i64 %7, 1
  %.not = icmp eq i64 %8, 0
  br i1 %.not, label %9, label %lean_inc.exit11

9:                                                ; preds = %3
  %.val.i = load i32, ptr %6, align 4, !tbaa !8
  %10 = icmp sgt i32 %.val.i, 0
  br i1 %10, label %11, label %13, !prof !11

11:                                               ; preds = %9
  %12 = add nuw i32 %.val.i, 1
  store i32 %12, ptr %6, align 4, !tbaa !8
  br label %lean_inc.exit11

13:                                               ; preds = %9
  %.not.i12 = icmp eq i32 %.val.i, 0
  br i1 %.not.i12, label %lean_inc.exit11, label %14

14:                                               ; preds = %13
  tail call void @lean_inc_ref_cold(ptr noundef nonnull %6) #6
  br label %lean_inc.exit11

lean_inc.exit11:                                  ; preds = %14, %13, %11, %3
  %15 = getelementptr inbounds nuw i8, ptr %4, i64 16
  %16 = load ptr, ptr %15, align 8, !tbaa !4
  %17 = ptrtoint ptr %16 to i64
  %18 = and i64 %17, 1
  %.not16 = icmp eq i64 %18, 0
  br i1 %.not16, label %19, label %lean_inc.exit

19:                                               ; preds = %lean_inc.exit11
  %.val.i13 = load i32, ptr %16, align 4, !tbaa !8
  %20 = icmp sgt i32 %.val.i13, 0
  br i1 %20, label %21, label %23, !prof !11

21:                                               ; preds = %19
  %22 = add nuw i32 %.val.i13, 1
  store i32 %22, ptr %16, align 4, !tbaa !8
  br label %lean_inc.exit

23:                                               ; preds = %19
  %.not.i14 = icmp eq i32 %.val.i13, 0
  br i1 %.not.i14, label %lean_inc.exit, label %24

24:                                               ; preds = %23
  tail call void @lean_inc_ref_cold(ptr noundef nonnull %16) #6
  br label %lean_inc.exit

lean_inc.exit:                                    ; preds = %24, %23, %21, %lean_inc.exit11
  %25 = ptrtoint ptr %4 to i64
  %26 = and i64 %25, 1
  %.not17 = icmp eq i64 %26, 0
  br i1 %.not17, label %27, label %lean_dec.exit

27:                                               ; preds = %lean_inc.exit
  %28 = load i32, ptr %4, align 4, !tbaa !8
  %29 = icmp sgt i32 %28, 1
  br i1 %29, label %30, label %32, !prof !11

30:                                               ; preds = %27
  %31 = add nsw i32 %28, -1
  store i32 %31, ptr %4, align 4, !tbaa !8
  br label %lean_dec.exit

32:                                               ; preds = %27
  %.not.i = icmp eq i32 %28, 0
  br i1 %.not.i, label %lean_dec.exit, label %33

33:                                               ; preds = %32
  tail call void @lean_dec_ref_cold(ptr noundef nonnull %4) #6
  br label %lean_dec.exit

lean_dec.exit:                                    ; preds = %33, %32, %30, %lean_inc.exit
  %34 = tail call ptr @l_IO_FS_Stream_writeLspNotification___at_Lean_Server_Test_Runner_main___spec__34(ptr noundef %6, ptr noundef %0, ptr noundef %16)
  ret ptr %34
}